; Function Attrs: nounwind uwtable
define internal i32 @dissect_h248_SigParameter(i1 noundef zeroext %0, ptr noundef %1, i32 noundef %2, ptr noundef %3, ptr noundef %4, i32 noundef %5) #0 {
  %7 = load i32, ptr @h248_version, align 4
  %8 = icmp ugt i32 %7, 1
  %SigParameter_sequence.SigParameterV1_sequence = select i1 %8, ptr @SigParameter_sequence, ptr @SigParameterV1_sequence
  %ett_h248_SigParameter.val = load i32, ptr @ett_h248_SigParameter, align 4
  %ett_h248_SigParameterV1.val = load i32, ptr @ett_h248_SigParameterV1, align 4
  %9 = select i1 %8, i32 %ett_h248_SigParameter.val, i32 %ett_h248_SigParameterV1.val
  %10 = tail call i32 @dissect_ber_sequence(i1 noundef zeroext %0, ptr noundef %3, ptr noundef %4, ptr noundef %1, i32 noundef %2, ptr noundef nonnull %SigParameter_sequence.SigParameterV1_sequence, i32 noundef %5, i32 noundef %9) #7
  ret i32 %10
}